(lp0
(I13
I5
tp1
a(I2
I16
tp2
a(I0
I18
tp3
a(I6
I12
tp4
a(I13
I5
tp5
a(I3
I15
tp6
a(I17
I1
tp7
a(I4
I14
tp8
a(I0
I18
tp9
a(I4
I14
tp10
a(I9
I9
tp11
a(I1
I17
tp12
a(I16
I2
tp13
a(I7
I11
tp14
a(I13
I5
tp15
a(I8
I10
tp16
a(I5
I13
tp17
a(I11
I7
tp18
a(I0
I18
tp19
a(I6
I12
tp20
a(I6
I12
tp21
a(I9
I9
tp22
a(I13
I5
tp23
a(I0
I18
tp24
a(I1
I17
tp25
a(I4
I14
tp26
a(I5
I13
tp27
a(I5
I13
tp28
a(I4
I14
tp29
a(I2
I16
tp30
a(I1
I17
tp31
a(I8
I10
tp32
a(I4
I14
tp33
a(I2
I16
tp34
a(I6
I12
tp35
a(I2
I16
tp36
a(I4
I14
tp37
a(I12
I6
tp38
a(I2
I16
tp39
a(I4
I14
tp40
a(I4
I14
tp41
a(I12
I6
tp42
a(I15
I3
tp43
a(I13
I5
tp44
a(I9
I9
tp45
a(I4
I14
tp46
a(I4
I14
tp47
a(I2
I16
tp48
a(I16
I2
tp49
a(I4
I14
tp50
a(I1
I17
tp51
a(I4
I14
tp52
a(I5
I13
tp53
a(I14
I4
tp54
a(I1
I17
tp55
a(I15
I3
tp56
a(I2
I16
tp57
a(I13
I5
tp58
a(I6
I12
tp59
a(I16
I2
tp60
a(I8
I10
tp61
a(I10
I8
tp62
a(I9
I9
tp63
a(I11
I7
tp64
a(I4
I14
tp65
a(I5
I13
tp66
a(I2
I16
tp67
a(I7
I11
tp68
a(I2
I16
tp69
a(I13
I5
tp70
a(I3
I15
tp71
a(I3
I15
tp72
a(I11
I7
tp73
a(I6
I12
tp74
a(I7
I11
tp75
a(I11
I7
tp76
a(I10
I8
tp77
a(I2
I16
tp78
a(I0
I18
tp79
a(I3
I15
tp80
a(I5
I13
tp81
a(I12
I6
tp82
a(I13
I5
tp83
a(I5
I13
tp84
a(I13
I5
tp85
a(I0
I18
tp86
a(I16
I2
tp87
a(I0
I18
tp88
a(I2
I16
tp89
a(I6
I12
tp90
a(I7
I11
tp91
a(I13
I5
tp92
a(I6
I12
tp93
a(I17
I1
tp94
a(I14
I4
tp95
a(I5
I13
tp96
a(I11
I7
tp97
a(I1
I17
tp98
a(I3
I15
tp99
a(I8
I10
tp100
a(I1
I17
tp101
a(I12
I6
tp102
a(I6
I12
tp103
a(I8
I10
tp104
a(I9
I9
tp105
a(I9
I9
tp106
a(I5
I13
tp107
a(I9
I9
tp108
a(I7
I11
tp109
a(I11
I7
tp110
a(I8
I10
tp111
a(I5
I13
tp112
a(I3
I15
tp113
a(I8
I10
tp114
a(I3
I15
tp115
a(I9
I9
tp116
a(I5
I13
tp117
a(I7
I11
tp118
a(I11
I7
tp119
a(I8
I10
tp120
a(I9
I9
tp121
a(I7
I11
tp122
a(I6
I12
tp123
a(I4
I14
tp124
a(I14
I4
tp125
a(I6
I12
tp126
a(I3
I15
tp127
a(I8
I10
tp128
a(I11
I7
tp129
a(I12
I6
tp130
a(I0
I18
tp131
a(I1
I17
tp132
a(I6
I12
tp133
a(I3
I15
tp134
a(I9
I9
tp135
a(I3
I15
tp136
a(I4
I14
tp137
a(I1
I17
tp138
a(I2
I16
tp139
a(I6
I12
tp140
a(I8
I10
tp141
a(I5
I13
tp142
a(I6
I12
tp143
a(I3
I15
tp144
a(I14
I4
tp145
a(I2
I16
tp146
a(I3
I15
tp147
a(I10
I8
tp148
a(I8
I10
tp149
a(I7
I11
tp150
a(I13
I5
tp151
a(I5
I13
tp152
a(I2
I16
tp153
a(I6
I12
tp154
a(I5
I13
tp155
a(I5
I13
tp156
a(I9
I9
tp157
a(I8
I10
tp158
a(I8
I10
tp159
a(I9
I9
tp160
a(I6
I12
tp161
a(I9
I9
tp162
a(I1
I17
tp163
a(I10
I8
tp164
a(I6
I12
tp165
a(I4
I14
tp166
a(I3
I15
tp167
a(I11
I7
tp168
a(I4
I14
tp169
a(I4
I14
tp170
a(I1
I17
tp171
a(I1
I17
tp172
a(I9
I9
tp173
a(I13
I5
tp174
a(I8
I10
tp175
a(I7
I11
tp176
a(I8
I10
tp177
a(I10
I8
tp178
a(I7
I11
tp179
a(I3
I15
tp180
a(I8
I10
tp181
a(I8
I10
tp182
a(I2
I16
tp183
a(I10
I8
tp184
a(I3
I15
tp185
a(I4
I14
tp186
a(I8
I10
tp187
a(I9
I9
tp188
a(I6
I12
tp189
a(I7
I11
tp190
a(I7
I11
tp191
a(I7
I11
tp192
a(I4
I14
tp193
a(I16
I2
tp194
a(I10
I8
tp195
a(I6
I12
tp196
a(I9
I9
tp197
a(I4
I14
tp198
a(I5
I13
tp199
a(I8
I10
tp200
a(I13
I5
tp201
a(I3
I15
tp202
a(I2
I16
tp203
a(I3
I15
tp204
a(I4
I14
tp205
a(I8
I10
tp206
a(I10
I8
tp207
a(I4
I14
tp208
a(I9
I9
tp209
a(I11
I7
tp210
a(I7
I11
tp211
a(I2
I16
tp212
a(I2
I16
tp213
a(I2
I16
tp214
a(I8
I10
tp215
a(I8
I10
tp216
a(I6
I12
tp217
a(I5
I13
tp218
a(I6
I12
tp219
a(I6
I12
tp220
a(I12
I6
tp221
a(I12
I6
tp222
a(I5
I13
tp223
a(I8
I10
tp224
a(I1
I17
tp225
a(I7
I11
tp226
a(I9
I9
tp227
a(I4
I14
tp228
a(I1
I17
tp229
a(I14
I4
tp230
a(I2
I16
tp231
a(I9
I9
tp232
a(I7
I11
tp233
a(I12
I6
tp234
a(I4
I14
tp235
a(I9
I9
tp236
a(I4
I14
tp237
a(I8
I10
tp238
a(I7
I11
tp239
a(I10
I8
tp240
a(I6
I12
tp241
a(I0
I18
tp242
a(I1
I17
tp243
a(I13
I5
tp244
a(I3
I15
tp245
a(I14
I4
tp246
a(I0
I18
tp247
a(I5
I13
tp248
a(I5
I13
tp249
a(I6
I12
tp250
a(I13
I5
tp251
a(I2
I16
tp252
a(I8
I10
tp253
a(I13
I5
tp254
a(I7
I11
tp255
a(I7
I11
tp256
a(I7
I11
tp257
a(I3
I15
tp258
a(I8
I10
tp259
a(I0
I18
tp260
a(I2
I16
tp261
a(I5
I13
tp262
a(I3
I15
tp263
a(I6
I12
tp264
a(I4
I14
tp265
a(I4
I14
tp266
a(I12
I6
tp267
a(I15
I3
tp268
a(I17
I1
tp269
a(I10
I8
tp270
a(I8
I10
tp271
a(I6
I12
tp272
a(I1
I17
tp273
a(I7
I11
tp274
a(I8
I10
tp275
a(I14
I4
tp276
a(I1
I17
tp277
a(I1
I17
tp278
a(I15
I3
tp279
a(I11
I7
tp280
a(I8
I10
tp281
a(I8
I10
tp282
a(I4
I14
tp283
a(I9
I9
tp284
a(I9
I9
tp285
a(I8
I10
tp286
a(I3
I15
tp287
a(I5
I13
tp288
a(I8
I10
tp289
a(I13
I5
tp290
a(I13
I5
tp291
a(I5
I13
tp292
a(I14
I4
tp293
a(I10
I8
tp294
a(I5
I13
tp295
a(I1
I17
tp296
a(I10
I8
tp297
a(I11
I7
tp298
a(I10
I8
tp299
a(I2
I16
tp300
a(I13
I5
tp301
a(I6
I12
tp302
a(I16
I2
tp303
a(I0
I18
tp304
a(I9
I9
tp305
a(I4
I14
tp306
a(I4
I14
tp307
a(I14
I4
tp308
a(I3
I15
tp309
a(I2
I16
tp310
a(I14
I4
tp311
a(I8
I10
tp312
a(I17
I1
tp313
a(I10
I8
tp314
a(I10
I8
tp315
a(I6
I12
tp316
a(I4
I14
tp317
a(I11
I7
tp318
a(I8
I10
tp319
a(I4
I14
tp320
a(I12
I6
tp321
a(I2
I16
tp322
a(I3
I15
tp323
a(I1
I17
tp324
a(I14
I4
tp325
a(I17
I1
tp326
a(I5
I13
tp327
a(I12
I6
tp328
a(I8
I10
tp329
a(I10
I8
tp330
a(I1
I17
tp331
a(I5
I13
tp332
a(I5
I13
tp333
a(I13
I5
tp334
a(I5
I13
tp335
a(I3
I15
tp336
a(I2
I16
tp337
a(I4
I14
tp338
a(I17
I1
tp339
a(I5
I13
tp340
a(I5
I13
tp341
a(I8
I10
tp342
a(I6
I12
tp343
a(I13
I5
tp344
a(I9
I9
tp345
a(I15
I3
tp346
a(I8
I10
tp347
a(I10
I8
tp348
a(I6
I12
tp349
a(I10
I8
tp350
a(I5
I13
tp351
a(I5
I13
tp352
a(I1
I17
tp353
a(I12
I6
tp354
a(I8
I10
tp355
a(I4
I14
tp356
a(I7
I11
tp357
a(I3
I15
tp358
a(I7
I11
tp359
a(I2
I16
tp360
a(I10
I8
tp361
a(I8
I10
tp362
a(I15
I3
tp363
a(I3
I15
tp364
a(I8
I10
tp365
a(I1
I17
tp366
a(I7
I11
tp367
a(I5
I13
tp368
a(I1
I17
tp369
a(I4
I14
tp370
a(I3
I15
tp371
a(I6
I12
tp372
a(I14
I4
tp373
a(I10
I8
tp374
a(I7
I11
tp375
a(I2
I16
tp376
a(I2
I16
tp377
a(I16
I2
tp378
a(I13
I5
tp379
a(I13
I5
tp380
a(I12
I6
tp381
a(I0
I18
tp382
a(I6
I12
tp383
a(I5
I13
tp384
a(I10
I8
tp385
a(I8
I10
tp386
a(I14
I4
tp387
a(I9
I9
tp388
a(I16
I2
tp389
a(I8
I10
tp390
a(I8
I10
tp391
a(I5
I13
tp392
a(I15
I3
tp393
a(I11
I7
tp394
a(I13
I5
tp395
a(I6
I12
tp396
a(I1
I17
tp397
a(I11
I7
tp398
a(I17
I1
tp399
a(I8
I10
tp400
a(I2
I16
tp401
a(I6
I12
tp402
a(I9
I9
tp403
a(I2
I16
tp404
a(I17
I1
tp405
a(I15
I3
tp406
a(I14
I4
tp407
a(I5
I13
tp408
a(I4
I14
tp409
a(I3
I15
tp410
a(I2
I16
tp411
a(I8
I10
tp412
a(I2
I16
tp413
a(I5
I13
tp414
a(I4
I14
tp415
a(I0
I18
tp416
a(I14
I4
tp417
a(I5
I13
tp418
a(I5
I13
tp419
a(I1
I17
tp420
a(I5
I13
tp421
a(I6
I12
tp422
a(I4
I14
tp423
a(I8
I10
tp424
a(I10
I8
tp425
a(I7
I11
tp426
a(I0
I18
tp427
a(I10
I8
tp428
a(I16
I2
tp429
a(I7
I11
tp430
a(I6
I12
tp431
a(I8
I10
tp432
a(I4
I14
tp433
a(I5
I13
tp434
a(I16
I2
tp435
a(I8
I10
tp436
a(I12
I6
tp437
a(I5
I13
tp438
a(I5
I13
tp439
a(I4
I14
tp440
a(I4
I14
tp441
a(I9
I9
tp442
a(I9
I9
tp443
a(I8
I10
tp444
a(I7
I11
tp445
a(I4
I14
tp446
a(I2
I16
tp447
a(I4
I14
tp448
a(I8
I10
tp449
a(I14
I4
tp450
a(I12
I6
tp451
a(I5
I13
tp452
a(I13
I5
tp453
a(I15
I3
tp454
a(I12
I6
tp455
a(I14
I4
tp456
a(I10
I8
tp457
a(I6
I12
tp458
a(I10
I8
tp459
a(I2
I16
tp460
a(I6
I12
tp461
a(I10
I8
tp462
a(I14
I4
tp463
a(I1
I17
tp464
a(I11
I7
tp465
a(I5
I13
tp466
a(I6
I12
tp467
a(I2
I16
tp468
a(I3
I15
tp469
a(I6
I12
tp470
a(I4
I14
tp471
a(I2
I16
tp472
a(I4
I14
tp473
a(I9
I9
tp474
a(I0
I18
tp475
a(I11
I7
tp476
a(I0
I18
tp477
a(I10
I8
tp478
a(I11
I7
tp479
a(I3
I15
tp480
a(I6
I12
tp481
a(I6
I12
tp482
a(I8
I10
tp483
a(I10
I8
tp484
a(I6
I12
tp485
a(I9
I9
tp486
a(I13
I5
tp487
a(I0
I18
tp488
a(I11
I7
tp489
a(I2
I16
tp490
a(I3
I15
tp491
a(I4
I14
tp492
a(I6
I12
tp493
a(I1
I17
tp494
a(I15
I3
tp495
a(I7
I11
tp496
a(I17
I1
tp497
a(I10
I8
tp498
a(I7
I11
tp499
a(I9
I9
tp500
a(I8
I10
tp501
a(I8
I10
tp502
a(I10
I8
tp503
a(I15
I3
tp504
a(I12
I6
tp505
a(I15
I3
tp506
a(I1
I17
tp507
a(I3
I15
tp508
a(I5
I13
tp509
a(I8
I10
tp510
a(I8
I10
tp511
a(I2
I16
tp512
a(I1
I17
tp513
a(I14
I4
tp514
a(I10
I8
tp515
a(I8
I10
tp516
a(I4
I14
tp517
a(I6
I12
tp518
a(I0
I18
tp519
a(I3
I15
tp520
a(I11
I7
tp521
a(I4
I14
tp522
a(I13
I5
tp523
a(I15
I3
tp524
a(I7
I11
tp525
a(I2
I16
tp526
a(I6
I12
tp527
a(I10
I8
tp528
a(I8
I10
tp529
a(I10
I8
tp530
a(I6
I12
tp531
a(I0
I18
tp532
a(I6
I12
tp533
a(I8
I10
tp534
a(I7
I11
tp535
a(I12
I6
tp536
a(I7
I11
tp537
a(I9
I9
tp538
a(I5
I13
tp539
a(I12
I6
tp540
a(I11
I7
tp541
a(I11
I7
tp542
a(I13
I5
tp543
a(I11
I7
tp544
a(I14
I4
tp545
a(I1
I17
tp546
a(I6
I12
tp547
a(I6
I12
tp548
a(I9
I9
tp549
a(I11
I7
tp550
a(I16
I2
tp551
a(I10
I8
tp552
a(I11
I7
tp553
a(I0
I18
tp554
a(I6
I12
tp555
a(I0
I18
tp556
a(I3
I15
tp557
a(I1
I17
tp558
a(I5
I13
tp559
a(I15
I3
tp560
a(I17
I1
tp561
a(I1
I17
tp562
a(I5
I13
tp563
a(I0
I18
tp564
a(I1
I17
tp565
a(I13
I5
tp566
a(I10
I8
tp567
a(I1
I17
tp568
a(I9
I9
tp569
a(I7
I11
tp570
a(I2
I16
tp571
a(I8
I10
tp572
a(I5
I13
tp573
a(I4
I14
tp574
a(I6
I12
tp575
a(I6
I12
tp576
a(I9
I9
tp577
a(I6
I12
tp578
a(I5
I13
tp579
a(I8
I10
tp580
a(I3
I15
tp581
a(I12
I6
tp582
a(I4
I14
tp583
a(I6
I12
tp584
a(I3
I15
tp585
a(I12
I6
tp586
a(I13
I5
tp587
a(I10
I8
tp588
a(I4
I14
tp589
a(I4
I14
tp590
a(I6
I12
tp591
a(I2
I16
tp592
a(I6
I12
tp593
a(I2
I16
tp594
a(I10
I8
tp595
a(I7
I11
tp596
a(I4
I14
tp597
a(I1
I17
tp598
a(I6
I12
tp599
a(I10
I8
tp600
a(I8
I10
tp601
a(I4
I14
tp602
a(I5
I13
tp603
a(I5
I13
tp604
a(I6
I12
tp605
a(I10
I8
tp606
a(I3
I15
tp607
a(I3
I15
tp608
a(I5
I13
tp609
a(I6
I12
tp610
a(I10
I8
tp611
a(I6
I12
tp612
a(I2
I16
tp613
a(I6
I12
tp614
a(I3
I15
tp615
a(I6
I12
tp616
a(I9
I9
tp617
a(I11
I7
tp618
a(I8
I10
tp619
a(I7
I11
tp620
a(I5
I13
tp621
a(I15
I3
tp622
a(I1
I17
tp623
a(I11
I7
tp624
a(I10
I8
tp625
a(I7
I11
tp626
a(I13
I5
tp627
a(I4
I14
tp628
a(I3
I15
tp629
a(I7
I11
tp630
a(I6
I12
tp631
a(I9
I9
tp632
a(I7
I11
tp633
a(I5
I13
tp634
a(I6
I12
tp635
a(I6
I12
tp636
a(I12
I6
tp637
a(I7
I11
tp638
a(I5
I13
tp639
a(I8
I10
tp640
a(I3
I15
tp641
a(I10
I8
tp642
a(I14
I4
tp643
a(I4
I14
tp644
a(I7
I11
tp645
a(I6
I12
tp646
a(I8
I10
tp647
a(I11
I7
tp648
a(I5
I13
tp649
a(I14
I4
tp650
a(I5
I13
tp651
a(I5
I13
tp652
a(I18
I0
tp653
a(I2
I16
tp654
a(I17
I1
tp655
a(I5
I13
tp656
a(I5
I13
tp657
a(I4
I14
tp658
a(I13
I5
tp659
a(I14
I4
tp660
a(I12
I6
tp661
a(I0
I18
tp662
a(I2
I16
tp663
a(I6
I12
tp664
a(I5
I13
tp665
a(I14
I4
tp666
a(I5
I13
tp667
a(I13
I5
tp668
a(I2
I16
tp669
a(I6
I12
tp670
a(I6
I12
tp671
a(I4
I14
tp672
a(I1
I17
tp673
a(I7
I11
tp674
a(I6
I12
tp675
a(I2
I16
tp676
a(I7
I11
tp677
a(I3
I15
tp678
a(I8
I10
tp679
a(I5
I13
tp680
a(I4
I14
tp681
a(I13
I5
tp682
a(I1
I17
tp683
a(I8
I10
tp684
a(I2
I16
tp685
a(I6
I12
tp686
a(I4
I14
tp687
a(I2
I16
tp688
a(I7
I11
tp689
a(I7
I11
tp690
a(I1
I17
tp691
a(I1
I17
tp692
a(I9
I9
tp693
a(I15
I3
tp694
a(I5
I13
tp695
a(I5
I13
tp696
a(I4
I14
tp697
a(I16
I2
tp698
a(I7
I11
tp699
a(I6
I12
tp700
a(I1
I17
tp701
a(I5
I13
tp702
a(I6
I12
tp703
a(I4
I14
tp704
a(I13
I5
tp705
a(I5
I13
tp706
a(I14
I4
tp707
a(I9
I9
tp708
a(I11
I7
tp709
a(I2
I16
tp710
a(I6
I12
tp711
a(I10
I8
tp712
a(I3
I15
tp713
a(I0
I18
tp714
a(I9
I9
tp715
a(I10
I8
tp716
a(I6
I12
tp717
a(I6
I12
tp718
a(I7
I11
tp719
a(I4
I14
tp720
a(I3
I15
tp721
a(I9
I9
tp722
a(I8
I10
tp723
a(I11
I7
tp724
a(I0
I18
tp725
a(I6
I12
tp726
a(I14
I4
tp727
a(I2
I16
tp728
a(I1
I17
tp729
a(I4
I14
tp730
a(I12
I6
tp731
a(I5
I13
tp732
a(I9
I9
tp733
a(I7
I11
tp734
a(I8
I10
tp735
a(I1
I17
tp736
a(I3
I15
tp737
a(I5
I13
tp738
a(I5
I13
tp739
a(I1
I17
tp740
a(I9
I9
tp741
a(I7
I11
tp742
a(I7
I11
tp743
a(I5
I13
tp744
a(I6
I12
tp745
a(I8
I10
tp746
a(I13
I5
tp747
a(I9
I9
tp748
a(I16
I2
tp749
a(I7
I11
tp750
a(I14
I4
tp751
a(I1
I17
tp752
a(I6
I12
tp753
a(I3
I15
tp754
a(I9
I9
tp755
a(I4
I14
tp756
a(I14
I4
tp757
a(I11
I7
tp758
a(I4
I14
tp759
a(I5
I13
tp760
a(I10
I8
tp761
a(I3
I15
tp762
a(I7
I11
tp763
a(I2
I16
tp764
a(I3
I15
tp765
a(I13
I5
tp766
a(I8
I10
tp767
a(I1
I17
tp768
a(I10
I8
tp769
a(I4
I14
tp770
a(I11
I7
tp771
a(I10
I8
tp772
a(I10
I8
tp773
a(I14
I4
tp774
a(I3
I15
tp775
a(I12
I6
tp776
a(I2
I16
tp777
a(I11
I7
tp778
a(I4
I14
tp779
a(I12
I6
tp780
a(I1
I17
tp781
a(I14
I4
tp782
a(I2
I16
tp783
a(I10
I8
tp784
a(I3
I15
tp785
a(I7
I11
tp786
a(I8
I10
tp787
a(I17
I1
tp788
a(I8
I10
tp789
a(I10
I8
tp790
a(I4
I14
tp791
a(I3
I15
tp792
a(I9
I9
tp793
a(I4
I14
tp794
a(I14
I4
tp795
a(I15
I3
tp796
a(I3
I15
tp797
a(I10
I8
tp798
a(I5
I13
tp799
a(I0
I18
tp800
a(I9
I9
tp801
a(I2
I16
tp802
a(I7
I11
tp803
a(I16
I2
tp804
a(I13
I5
tp805
a(I2
I16
tp806
a(I9
I9
tp807
a(I0
I18
tp808
a(I8
I10
tp809
a(I0
I18
tp810
a(I3
I15
tp811
a(I1
I17
tp812
a(I6
I12
tp813
a(I5
I13
tp814
a(I11
I7
tp815
a(I8
I10
tp816
a(I7
I11
tp817
a(I8
I10
tp818
a(I4
I14
tp819
a(I9
I9
tp820
a(I2
I16
tp821
a(I7
I11
tp822
a(I15
I3
tp823
a(I3
I15
tp824
a(I9
I9
tp825
a(I10
I8
tp826
a(I9
I9
tp827
a(I4
I14
tp828
a(I5
I13
tp829
a(I12
I6
tp830
a(I0
I18
tp831
a(I8
I10
tp832
a(I12
I6
tp833
a(I4
I14
tp834
a(I4
I14
tp835
a(I0
I18
tp836
a(I10
I8
tp837
a(I6
I12
tp838
a(I9
I9
tp839
a(I9
I9
tp840
a(I8
I10
tp841
a(I3
I15
tp842
a(I14
I4
tp843
a(I0
I18
tp844
a(I2
I16
tp845
a(I17
I1
tp846
a(I6
I12
tp847
a(I4
I14
tp848
a(I1
I17
tp849
a(I2
I16
tp850
a(I7
I11
tp851
a(I5
I13
tp852
a(I7
I11
tp853
a(I3
I15
tp854
a(I3
I15
tp855
a(I6
I12
tp856
a(I2
I16
tp857
a(I3
I15
tp858
a(I1
I17
tp859
a(I7
I11
tp860
a(I4
I14
tp861
a(I9
I9
tp862
a(I8
I10
tp863
a(I15
I3
tp864
a(I11
I7
tp865
a(I0
I18
tp866
a(I7
I11
tp867
a(I15
I3
tp868
a(I3
I15
tp869
a(I14
I4
tp870
a(I8
I10
tp871
a(I9
I9
tp872
a(I4
I14
tp873
a(I1
I17
tp874
a(I5
I13
tp875
a(I4
I14
tp876
a(I2
I16
tp877
a(I6
I12
tp878
a(I1
I17
tp879
a(I14
I4
tp880
a(I14
I4
tp881
a(I3
I15
tp882
a(I8
I10
tp883
a(I3
I15
tp884
a(I2
I16
tp885
a(I12
I6
tp886
a(I4
I14
tp887
a(I4
I14
tp888
a(I14
I4
tp889
a(I15
I3
tp890
a(I3
I15
tp891
a(I16
I2
tp892
a(I4
I14
tp893
a(I5
I13
tp894
a(I3
I15
tp895
a(I18
I0
tp896
a(I7
I11
tp897
a(I5
I13
tp898
a(I11
I7
tp899
a(I6
I12
tp900
a(I3
I15
tp901
a(I0
I18
tp902
a(I1
I17
tp903
a(I5
I13
tp904
a(I6
I12
tp905
a(I4
I14
tp906
a(I7
I11
tp907
a(I8
I10
tp908
a(I7
I11
tp909
a(I4
I14
tp910
a(I11
I7
tp911
a(I8
I10
tp912
a(I6
I12
tp913
a(I3
I15
tp914
a(I6
I12
tp915
a(I13
I5
tp916
a(I4
I14
tp917
a(I8
I10
tp918
a(I2
I16
tp919
a(I7
I11
tp920
a(I4
I14
tp921
a(I14
I4
tp922
a(I7
I11
tp923
a(I7
I11
tp924
a(I6
I12
tp925
a(I5
I13
tp926
a(I8
I10
tp927
a(I9
I9
tp928
a(I7
I11
tp929
a(I2
I16
tp930
a(I1
I17
tp931
a(I16
I2
tp932
a(I15
I3
tp933
a(I13
I5
tp934
a(I5
I13
tp935
a(I6
I12
tp936
a(I3
I15
tp937
a(I12
I6
tp938
a(I5
I13
tp939
a(I3
I15
tp940
a(I3
I15
tp941
a(I2
I16
tp942
a(I13
I5
tp943
a.